; ModuleID = '19/801.c'
source_filename = "19/801.c"
target datalayout = "e-m:e-p270:32:32-p271:32:32-p272:64:64-i64:64-f80:128-n8:16:32:64-S128"
target triple = "x86_64-pc-linux-gnu"

@.str = private unnamed_addr constant [2 x i8] c" \00", align 1
@.str.1 = private unnamed_addr constant [3 x i8] c"%s\00", align 1

; Function Attrs: noinline nounwind uwtable
define dso_local void @main() #0 {
  %1 = alloca i32, align 4
  %2 = alloca i32, align 4
  %3 = alloca i32, align 4
  %4 = alloca i32, align 4
  %5 = alloca i8*, align 8
  %6 = alloca i8*, align 8
  %7 = alloca i8*, align 8
  %8 = alloca i8*, align 8
  store i32 0, i32* %3, align 4
  %9 = call noalias i8* @malloc(i64 10000) #4
  store i8* %9, i8** %5, align 8
  %10 = call noalias i8* @malloc(i64 100) #4
  store i8* %10, i8** %6, align 8
  %11 = call noalias i8* @malloc(i64 100) #4
  store i8* %11, i8** %7, align 8
  %12 = call noalias i8* @malloc(i64 100) #4
  store i8* %12, i8** %8, align 8
  %13 = load i8*, i8** %5, align 8
  %14 = call i32 (i8*, ...) bitcast (i32 (...)* @gets to i32 (i8*, ...)*)(i8* %13)
  %15 = load i8*, i8** %7, align 8
  %16 = call i32 (i8*, ...) bitcast (i32 (...)* @gets to i32 (i8*, ...)*)(i8* %15)
  %17 = load i8*, i8** %8, align 8
  %18 = call i32 (i8*, ...) bitcast (i32 (...)* @gets to i32 (i8*, ...)*)(i8* %17)
  store i32 0, i32* %1, align 4
  br label %19

19:                                               ; preds = %97, %0
  %20 = load i8*, i8** %5, align 8
  %21 = load i32, i32* %1, align 4
  %22 = sext i32 %21 to i64
  %23 = getelementptr inbounds i8, i8* %20, i64 %22
  %24 = load i8, i8* %23, align 1
  %25 = sext i8 %24 to i32
  %26 = icmp ne i32 %25, 0
  br i1 %26, label %27, label %100

27:                                               ; preds = %19
  store i32 0, i32* %2, align 4
  br label %28

28:                                               ; preds = %56, %27
  %29 = load i8*, i8** %5, align 8
  %30 = load i32, i32* %1, align 4
  %31 = sext i32 %30 to i64
  %32 = getelementptr inbounds i8, i8* %29, i64 %31
  %33 = load i8, i8* %32, align 1
  %34 = sext i8 %33 to i32
  %35 = icmp ne i32 %34, 32
  br i1 %35, label %36, label %44

36:                                               ; preds = %28
  %37 = load i8*, i8** %5, align 8
  %38 = load i32, i32* %1, align 4
  %39 = sext i32 %38 to i64
  %40 = getelementptr inbounds i8, i8* %37, i64 %39
  %41 = load i8, i8* %40, align 1
  %42 = sext i8 %41 to i32
  %43 = icmp ne i32 %42, 0
  br label %44

44:                                               ; preds = %36, %28
  %45 = phi i1 [ false, %28 ], [ %43, %36 ]
  br i1 %45, label %46, label %61

46:                                               ; preds = %44
  %47 = load i8*, i8** %5, align 8
  %48 = load i32, i32* %1, align 4
  %49 = sext i32 %48 to i64
  %50 = getelementptr inbounds i8, i8* %47, i64 %49
  %51 = load i8, i8* %50, align 1
  %52 = load i8*, i8** %6, align 8
  %53 = load i32, i32* %2, align 4
  %54 = sext i32 %53 to i64
  %55 = getelementptr inbounds i8, i8* %52, i64 %54
  store i8 %51, i8* %55, align 1
  br label %56

56:                                               ; preds = %46
  %57 = load i32, i32* %1, align 4
  %58 = add nsw i32 %57, 1
  store i32 %58, i32* %1, align 4
  %59 = load i32, i32* %2, align 4
  %60 = add nsw i32 %59, 1
  store i32 %60, i32* %2, align 4
  br label %28

61:                                               ; preds = %44
  %62 = load i8*, i8** %6, align 8
  %63 = load i32, i32* %2, align 4
  %64 = sext i32 %63 to i64
  %65 = getelementptr inbounds i8, i8* %62, i64 %64
  store i8 0, i8* %65, align 1
  %66 = load i8*, i8** %6, align 8
  %67 = load i8*, i8** %7, align 8
  %68 = call i32 @strcmp(i8* %66, i8* %67) #5
  %69 = icmp eq i32 %68, 0
  br i1 %69, label %70, label %74

70:                                               ; preds = %61
  %71 = load i8*, i8** %6, align 8
  %72 = load i8*, i8** %8, align 8
  %73 = call i8* @strcpy(i8* %71, i8* %72) #4
  br label %74

74:                                               ; preds = %70, %61
  %75 = load i32, i32* %3, align 4
  %76 = icmp sgt i32 %75, 0
  br i1 %76, label %77, label %79

77:                                               ; preds = %74
  %78 = call i32 (i8*, ...) @printf(i8* getelementptr inbounds ([2 x i8], [2 x i8]* @.str, i64 0, i64 0))
  br label %79

79:                                               ; preds = %77, %74
  %80 = load i8*, i8** %6, align 8
  %81 = call i32 (i8*, ...) @printf(i8* getelementptr inbounds ([3 x i8], [3 x i8]* @.str.1, i64 0, i64 0), i8* %80)
  store i32 0, i32* %4, align 4
  br label %82

82:                                               ; preds = %91, %79
  %83 = load i32, i32* %4, align 4
  %84 = load i32, i32* %2, align 4
  %85 = icmp sle i32 %83, %84
  br i1 %85, label %86, label %94

86:                                               ; preds = %82
  %87 = load i8*, i8** %6, align 8
  %88 = load i32, i32* %4, align 4
  %89 = sext i32 %88 to i64
  %90 = getelementptr inbounds i8, i8* %87, i64 %89
  store i8 0, i8* %90, align 1
  br label %91

91:                                               ; preds = %86
  %92 = load i32, i32* %4, align 4
  %93 = add nsw i32 %92, 1
  store i32 %93, i32* %4, align 4
  br label %82

94:                                               ; preds = %82
  %95 = load i32, i32* %3, align 4
  %96 = add nsw i32 %95, 1
  store i32 %96, i32* %3, align 4
  br label %97

97:                                               ; preds = %94
  %98 = load i32, i32* %1, align 4
  %99 = add nsw i32 %98, 1
  store i32 %99, i32* %1, align 4
  br label %19

100:                                              ; preds = %19
  ret void
}

; Function Attrs: nounwind
declare dso_local noalias i8* @malloc(i64) #1

declare dso_local i32 @gets(...) #2

; Function Attrs: nounwind readonly
declare dso_local i32 @strcmp(i8*, i8*) #3

; Function Attrs: nounwind
declare dso_local i8* @strcpy(i8*, i8*) #1

declare dso_local i32 @printf(i8*, ...) #2


!llvm.module.flags = !{!0}
!llvm.ident = !{!1}

!0 = !{i32 1, !"wchar_size", i32 4}
!1 = !{!"clang version 10.0.0-4ubuntu1 "}
